; Function Attrs: mustprogress uwtable
define void @_ZN11MyTrenderer3endEv(ptr noundef nonnull align 8 dereferenceable(288) %0) unnamed_addr #1 align 2 personality ptr @__gxx_personality_v0 {
  %2 = alloca %"class.StructureSynth::Model::Rendering::TemplatePrimitive", align 8
  %3 = alloca %class.QString, align 8
  %4 = alloca %class.QString, align 8
  %5 = getelementptr inbounds i8, ptr %0, i64 208
  %6 = tail call noundef ptr @_ZN7QString16fromAscii_helperEPKci(ptr noundef nonnull @.str.23, i32 noundef 3)
  store ptr %6, ptr %3, align 8
  %7 = invoke noundef nonnull align 8 dereferenceable(8) ptr @_ZN4QMapI7QStringN14StructureSynth5Model9Rendering17TemplatePrimitiveEEixERKS0_(ptr noundef nonnull align 8 dereferenceable(8) %5, ptr noundef nonnull align 8 dereferenceable(8) %3)
          to label %8 unwind label %29

8:                                                ; preds = %1
  store ptr @_ZN10QArrayData11shared_nullE, ptr %2, align 8, !alias.scope !13
  %9 = call noundef nonnull align 8 dereferenceable(8) ptr @_ZN7QStringaSERKS_(ptr noundef nonnull align 8 dereferenceable(8) %2, ptr noundef nonnull align 8 dereferenceable(8) %7) #11
  %10 = load ptr, ptr %3, align 8
  %11 = load atomic i32, ptr %10 monotonic, align 4
  switch i32 %11, label %_ZN9QtPrivate8RefCount5derefEv.exit.i [
    i32 0, label %_ZN9QtPrivate8RefCount5derefEv.exit.thread2.i
    i32 -1, label %_ZN7QStringD2Ev.exit
  ]

_ZN9QtPrivate8RefCount5derefEv.exit.i:            ; preds = %8
  %12 = atomicrmw sub ptr %10, i32 1 seq_cst, align 4
  %.not.i = icmp eq i32 %12, 1
  br i1 %.not.i, label %_ZN9QtPrivate8RefCount5derefEv.exit._ZN9QtPrivate8RefCount5derefEv.exit.thread2_crit_edge.i, label %_ZN7QStringD2Ev.exit

_ZN9QtPrivate8RefCount5derefEv.exit._ZN9QtPrivate8RefCount5derefEv.exit.thread2_crit_edge.i: ; preds = %_ZN9QtPrivate8RefCount5derefEv.exit.i
  %.pre.i = load ptr, ptr %3, align 8
  br label %_ZN9QtPrivate8RefCount5derefEv.exit.thread2.i

_ZN9QtPrivate8RefCount5derefEv.exit.thread2.i:    ; preds = %_ZN9QtPrivate8RefCount5derefEv.exit._ZN9QtPrivate8RefCount5derefEv.exit.thread2_crit_edge.i, %8
  %13 = phi ptr [ %.pre.i, %_ZN9QtPrivate8RefCount5derefEv.exit._ZN9QtPrivate8RefCount5derefEv.exit.thread2_crit_edge.i ], [ %10, %8 ]
  call void @_ZN10QArrayData10deallocateEPS_mm(ptr noundef %13, i64 noundef 2, i64 noundef 8) #11
  br label %_ZN7QStringD2Ev.exit

_ZN7QStringD2Ev.exit:                             ; preds = %8, %_ZN9QtPrivate8RefCount5derefEv.exit.i, %_ZN9QtPrivate8RefCount5derefEv.exit.thread2.i
  %14 = getelementptr inbounds i8, ptr %0, i64 256
  call void @llvm.experimental.noalias.scope.decl(metadata !16)
  %15 = load ptr, ptr %2, align 8, !noalias !16
  store ptr %15, ptr %4, align 8, !alias.scope !16
  %16 = load atomic i32, ptr %15 monotonic, align 4, !noalias !16
  %17 = add i32 %16, -1
  %or.cond.not.i.i.i = icmp ult i32 %17, -2
  br i1 %or.cond.not.i.i.i, label %18, label %_ZN14StructureSynth5Model9Rendering17TemplatePrimitive7getTextEv.exit

18:                                               ; preds = %_ZN7QStringD2Ev.exit
  %19 = atomicrmw add ptr %15, i32 1 seq_cst, align 4, !noalias !16
  br label %_ZN14StructureSynth5Model9Rendering17TemplatePrimitive7getTextEv.exit

_ZN14StructureSynth5Model9Rendering17TemplatePrimitive7getTextEv.exit: ; preds = %_ZN7QStringD2Ev.exit, %18
  invoke void @_ZN5QListI7QStringE6appendERKS0_(ptr noundef nonnull align 8 dereferenceable(8) %14, ptr noundef nonnull align 8 dereferenceable(8) %4)
          to label %20 unwind label %31

20:                                               ; preds = %_ZN14StructureSynth5Model9Rendering17TemplatePrimitive7getTextEv.exit
  %21 = load ptr, ptr %4, align 8
  %22 = load atomic i32, ptr %21 monotonic, align 4
  switch i32 %22, label %_ZN9QtPrivate8RefCount5derefEv.exit.i5 [
    i32 0, label %_ZN9QtPrivate8RefCount5derefEv.exit.thread2.i4
    i32 -1, label %_ZN7QStringD2Ev.exit9
  ]

_ZN9QtPrivate8RefCount5derefEv.exit.i5:           ; preds = %20
  %23 = atomicrmw sub ptr %21, i32 1 seq_cst, align 4
  %.not.i6 = icmp eq i32 %23, 1
  br i1 %.not.i6, label %_ZN9QtPrivate8RefCount5derefEv.exit._ZN9QtPrivate8RefCount5derefEv.exit.thread2_crit_edge.i7, label %_ZN7QStringD2Ev.exit9

_ZN9QtPrivate8RefCount5derefEv.exit._ZN9QtPrivate8RefCount5derefEv.exit.thread2_crit_edge.i7: ; preds = %_ZN9QtPrivate8RefCount5derefEv.exit.i5
  %.pre.i8 = load ptr, ptr %4, align 8
  br label %_ZN9QtPrivate8RefCount5derefEv.exit.thread2.i4

_ZN9QtPrivate8RefCount5derefEv.exit.thread2.i4:   ; preds = %_ZN9QtPrivate8RefCount5derefEv.exit._ZN9QtPrivate8RefCount5derefEv.exit.thread2_crit_edge.i7, %20
  %24 = phi ptr [ %.pre.i8, %_ZN9QtPrivate8RefCount5derefEv.exit._ZN9QtPrivate8RefCount5derefEv.exit.thread2_crit_edge.i7 ], [ %21, %20 ]
  call void @_ZN10QArrayData10deallocateEPS_mm(ptr noundef %24, i64 noundef 2, i64 noundef 8) #11
  br label %_ZN7QStringD2Ev.exit9

_ZN7QStringD2Ev.exit9:                            ; preds = %20, %_ZN9QtPrivate8RefCount5derefEv.exit.i5, %_ZN9QtPrivate8RefCount5derefEv.exit.thread2.i4
  %25 = load ptr, ptr %2, align 8
  %26 = load atomic i32, ptr %25 monotonic, align 4
  switch i32 %26, label %_ZN9QtPrivate8RefCount5derefEv.exit.i.i [
    i32 0, label %_ZN9QtPrivate8RefCount5derefEv.exit.thread2.i.i
    i32 -1, label %_ZN14StructureSynth5Model9Rendering17TemplatePrimitiveD2Ev.exit
  ]

_ZN9QtPrivate8RefCount5derefEv.exit.i.i:          ; preds = %_ZN7QStringD2Ev.exit9
  %27 = atomicrmw sub ptr %25, i32 1 seq_cst, align 4
  %.not.i.i = icmp eq i32 %27, 1
  br i1 %.not.i.i, label %_ZN9QtPrivate8RefCount5derefEv.exit._ZN9QtPrivate8RefCount5derefEv.exit.thread2_crit_edge.i.i, label %_ZN14StructureSynth5Model9Rendering17TemplatePrimitiveD2Ev.exit

_ZN9QtPrivate8RefCount5derefEv.exit._ZN9QtPrivate8RefCount5derefEv.exit.thread2_crit_edge.i.i: ; preds = %_ZN9QtPrivate8RefCount5derefEv.exit.i.i
  %.pre.i.i = load ptr, ptr %2, align 8
  br label %_ZN9QtPrivate8RefCount5derefEv.exit.thread2.i.i

_ZN9QtPrivate8RefCount5derefEv.exit.thread2.i.i:  ; preds = %_ZN9QtPrivate8RefCount5derefEv.exit._ZN9QtPrivate8RefCount5derefEv.exit.thread2_crit_edge.i.i, %_ZN7QStringD2Ev.exit9
  %28 = phi ptr [ %.pre.i.i, %_ZN9QtPrivate8RefCount5derefEv.exit._ZN9QtPrivate8RefCount5derefEv.exit.thread2_crit_edge.i.i ], [ %25, %_ZN7QStringD2Ev.exit9 ]
  call void @_ZN10QArrayData10deallocateEPS_mm(ptr noundef %28, i64 noundef 2, i64 noundef 8) #11
  br label %_ZN14StructureSynth5Model9Rendering17TemplatePrimitiveD2Ev.exit

_ZN14StructureSynth5Model9Rendering17TemplatePrimitiveD2Ev.exit: ; preds = %_ZN7QStringD2Ev.exit9, %_ZN9QtPrivate8RefCount5derefEv.exit.i.i, %_ZN9QtPrivate8RefCount5derefEv.exit.thread2.i.i
  ret void

29:                                               ; preds = %1
  %30 = landingpad { ptr, i32 }
          cleanup
  call void @_ZN7QStringD2Ev(ptr noundef nonnull align 8 dereferenceable(8) %3) #11
  br label %33

31:                                               ; preds = %_ZN14StructureSynth5Model9Rendering17TemplatePrimitive7getTextEv.exit
  %32 = landingpad { ptr, i32 }
          cleanup
  call void @_ZN7QStringD2Ev(ptr noundef nonnull align 8 dereferenceable(8) %4) #11
  call void @_ZN14StructureSynth5Model9Rendering17TemplatePrimitiveD2Ev(ptr noundef nonnull align 8 dereferenceable(8) %2) #11
  br label %33

33:                                               ; preds = %31, %29
  %.pn = phi { ptr, i32 } [ %32, %31 ], [ %30, %29 ]
  resume { ptr, i32 } %.pn
}